; Function Attrs: mustprogress uwtable
define hidden void @_ZN1q4mbqi24add_universe_restrictionERNS0_6q_bodyE(ptr nocapture noundef nonnull align 8 dereferenceable(280) %this, ptr nocapture noundef nonnull readonly align 8 dereferenceable(80) %qb) local_unnamed_addr #3 align 2 {
entry:
  %m_nodes.i = getelementptr inbounds i8, ptr %qb, i64 8
  %0 = load ptr, ptr %m_nodes.i, align 8
  %cmp.i.i.i = icmp eq ptr %0, null
  br i1 %cmp.i.i.i, label %for.end, label %_ZNK15ref_vector_coreI3app19ref_manager_wrapperIS0_11ast_managerEE3endEv.exit

_ZNK15ref_vector_coreI3app19ref_manager_wrapperIS0_11ast_managerEE3endEv.exit: ; preds = %entry
  %arrayidx.i.i.i = getelementptr inbounds i8, ptr %0, i64 -4
  %1 = load i32, ptr %arrayidx.i.i.i, align 4
  %2 = zext i32 %1 to i64
  %add.ptr.i = getelementptr inbounds ptr, ptr %0, i64 %2
  %cmp.not6 = icmp eq i32 %1, 0
  br i1 %cmp.not6, label %for.end, label %for.body.lr.ph

for.body.lr.ph:                                   ; preds = %_ZNK15ref_vector_coreI3app19ref_manager_wrapperIS0_11ast_managerEE3endEv.exit
  %m_model = getelementptr inbounds i8, ptr %this, i64 176
  br label %for.body

for.body:                                         ; preds = %for.body.lr.ph, %for.inc
  %__begin1.07 = phi ptr [ %0, %for.body.lr.ph ], [ %incdec.ptr, %for.inc ]
  %3 = load ptr, ptr %__begin1.07, align 8
  %call3 = tail call noundef ptr @_ZNK4expr8get_sortEv(ptr noundef nonnull align 4 dereferenceable(16) %3)
  %4 = load ptr, ptr %m_model, align 8
  %call5 = tail call noundef zeroext i1 @_ZNK5model22has_uninterpreted_sortEP4sort(ptr noundef nonnull align 8 dereferenceable(160) %4, ptr noundef %call3)
  br i1 %call5, label %if.then, label %for.inc

if.then:                                          ; preds = %for.body
  %5 = load ptr, ptr %m_model, align 8
  %vtable = load ptr, ptr %5, align 8
  %vfn = getelementptr inbounds i8, ptr %vtable, i64 16
  %6 = load ptr, ptr %vfn, align 8
  %call8 = tail call noundef nonnull align 8 dereferenceable(8) ptr %6(ptr noundef nonnull align 8 dereferenceable(160) %5, ptr noundef %call3)
  tail call void @_ZN1q4mbqi20restrict_to_universeEP4exprRK10ptr_vectorIS1_E(ptr noundef nonnull align 8 dereferenceable(280) %this, ptr noundef nonnull %3, ptr noundef nonnull align 8 dereferenceable(8) %call8)
  br label %for.inc

for.inc:                                          ; preds = %for.body, %if.then
  %incdec.ptr = getelementptr inbounds i8, ptr %__begin1.07, i64 8
  %cmp.not = icmp eq ptr %incdec.ptr, %add.ptr.i
  br i1 %cmp.not, label %for.end, label %for.body

for.end:                                          ; preds = %for.inc, %entry, %_ZNK15ref_vector_coreI3app19ref_manager_wrapperIS0_11ast_managerEE3endEv.exit
  ret void
}